; Function Attrs: nounwind uwtable
define range(i32 -3, 1) i32 @CVodeSetLinearSolutionScaling(ptr noundef %0, i32 noundef %1) local_unnamed_addr #0 {
  %3 = icmp eq ptr %0, null
  br i1 %3, label %4, label %5

4:                                                ; preds = %2
  tail call void (ptr, i32, i32, ptr, ptr, ptr, ...) @cvProcessError(ptr noundef null, i32 noundef -1, i32 noundef 1930, ptr noundef nonnull @__func__.CVodeSetLinearSolutionScaling, ptr noundef nonnull @.str, ptr noundef nonnull @.str.1) #13
  br label %cvLs_AccessLMem.exit.thread

5:                                                ; preds = %2
  %6 = getelementptr inbounds nuw i8, ptr %0, i64 1040
  %7 = load ptr, ptr %6, align 8, !tbaa !69
  %8 = icmp eq ptr %7, null
  br i1 %8, label %9, label %cvLs_AccessLMem.exit

9:                                                ; preds = %5
  tail call void (ptr, i32, i32, ptr, ptr, ptr, ...) @cvProcessError(ptr noundef nonnull %0, i32 noundef -2, i32 noundef 1937, ptr noundef nonnull @__func__.CVodeSetLinearSolutionScaling, ptr noundef nonnull @.str, ptr noundef nonnull @.str.30) #13
  br label %cvLs_AccessLMem.exit.thread

cvLs_AccessLMem.exit:                             ; preds = %5
  %10 = getelementptr inbounds nuw i8, ptr %7, i64 4
  %11 = load i32, ptr %10, align 4, !tbaa !40
  %.not5 = icmp eq i32 %11, 0
  br i1 %.not5, label %cvLs_AccessLMem.exit.thread, label %12

12:                                               ; preds = %cvLs_AccessLMem.exit
  %13 = getelementptr inbounds nuw i8, ptr %0, i64 32
  %14 = load i32, ptr %13, align 8, !tbaa !67
  %.not6 = icmp eq i32 %14, 2
  br i1 %.not6, label %15, label %cvLs_AccessLMem.exit.thread

15:                                               ; preds = %12
  %16 = getelementptr inbounds nuw i8, ptr %7, i64 48
  store i32 %1, ptr %16, align 8, !tbaa !68
  br label %cvLs_AccessLMem.exit.thread

cvLs_AccessLMem.exit.thread:                      ; preds = %9, %4, %cvLs_AccessLMem.exit, %12, %15
  %.0 = phi i32 [ 0, %15 ], [ -3, %12 ], [ -3, %cvLs_AccessLMem.exit ], [ -2, %9 ], [ -1, %4 ]
  ret i32 %.0
}